target datalayout = "e-m:e-p270:32:32-p271:32:32-p272:64:64-i64:64-i128:128-f80:128-n8:16:32:64-S128"
target triple = "x86_64-pc-linux-gnu"

%struct.strbuf = type { i64, i64, ptr }

@__const.url_decode_mem.out = private unnamed_addr constant %struct.strbuf { i64 0, i64 0, ptr @strbuf_slopbuf }, align 8

; Function Attrs: nounwind uwtable
define dso_local ptr @url_decode_mem(ptr noundef %0, i32 noundef %1) #0 {
  %3 = alloca ptr, align 8
  %4 = alloca i32, align 4
  %5 = alloca %struct.strbuf, align 8
  %6 = alloca ptr, align 8
  store ptr %0, ptr %3, align 8, !tbaa !9
  store i32 %1, ptr %4, align 4, !tbaa !4
  call void @llvm.lifetime.start.p0(i64 24, ptr %5) #7
  call void @llvm.memcpy.p0.p0.i64(ptr align 8 %5, ptr align 8 @__const.url_decode_mem.out, i64 24, i1 false)
  call void @llvm.lifetime.start.p0(i64 8, ptr %6) #7
  %7 = load ptr, ptr %3, align 8, !tbaa !9
  %8 = load i32, ptr %4, align 4, !tbaa !4
  %9 = sext i32 %8 to i64
  %10 = call ptr @memchr(ptr noundef %7, i32 noundef 58, i64 noundef %9) #8
  store ptr %10, ptr %6, align 8, !tbaa !9
  %11 = load ptr, ptr %6, align 8, !tbaa !9
  %12 = icmp ne ptr %11, null
  br i1 %12, label %13, label %34

13:                                               ; preds = %2
  %14 = load ptr, ptr %3, align 8, !tbaa !9
  %15 = load ptr, ptr %6, align 8, !tbaa !9
  %16 = icmp ult ptr %14, %15
  br i1 %16, label %17, label %34

17:                                               ; preds = %13
  %18 = load ptr, ptr %3, align 8, !tbaa !9
  %19 = load ptr, ptr %6, align 8, !tbaa !9
  %20 = load ptr, ptr %3, align 8, !tbaa !9
  %21 = ptrtoint ptr %19 to i64
  %22 = ptrtoint ptr %20 to i64
  %23 = sub i64 %21, %22
  call void @strbuf_add(ptr noundef %5, ptr noundef %18, i64 noundef %23)
  %24 = load ptr, ptr %6, align 8, !tbaa !9
  %25 = load ptr, ptr %3, align 8, !tbaa !9
  %26 = ptrtoint ptr %24 to i64
  %27 = ptrtoint ptr %25 to i64
  %28 = sub i64 %26, %27
  %29 = load i32, ptr %4, align 4, !tbaa !4
  %30 = sext i32 %29 to i64
  %31 = sub nsw i64 %30, %28
  %32 = trunc i64 %31 to i32
  store i32 %32, ptr %4, align 4, !tbaa !4
  %33 = load ptr, ptr %6, align 8, !tbaa !9
  store ptr %33, ptr %3, align 8, !tbaa !9
  br label %34

34:                                               ; preds = %17, %13, %2
  %35 = load i32, ptr %4, align 4, !tbaa !4
  %36 = call ptr @url_decode_internal(ptr noundef %3, i32 noundef %35, ptr noundef null, ptr noundef %5, i32 noundef 0)
  call void @llvm.lifetime.end.p0(i64 8, ptr %6) #7
  call void @llvm.lifetime.end.p0(i64 24, ptr %5) #7
  ret ptr %36
}