; Function Attrs: nounwind uwtable
define dso_local ptr @url_decode_mem(ptr noundef %0, i32 noundef %1) local_unnamed_addr #3 {
  %3 = alloca ptr, align 8
  %4 = alloca %struct.strbuf, align 8
  store ptr %0, ptr %3, align 8, !tbaa !9
  call void @llvm.lifetime.start.p0(i64 24, ptr nonnull %4) #9
  call void @llvm.memcpy.p0.p0.i64(ptr noundef nonnull align 8 dereferenceable(24) %4, ptr noundef nonnull align 8 dereferenceable(24) @__const.str_end_url_with_slash.buf, i64 24, i1 false)
  %5 = sext i32 %1 to i64
  %6 = tail call ptr @memchr(ptr noundef %0, i32 noundef 58, i64 noundef %5) #8
  %7 = icmp ult ptr %0, %6
  br i1 %7, label %8, label %14

8:                                                ; preds = %2
  %9 = ptrtoint ptr %6 to i64
  %10 = ptrtoint ptr %0 to i64
  %11 = sub i64 %9, %10
  call void @strbuf_add(ptr noundef nonnull %4, ptr noundef %0, i64 noundef %11) #9
  %.neg = sub i64 %10, %9
  %12 = trunc i64 %.neg to i32
  %13 = add i32 %1, %12
  store ptr %6, ptr %3, align 8, !tbaa !9
  br label %14

14:                                               ; preds = %8, %2
  %.0 = phi i32 [ %13, %8 ], [ %1, %2 ]
  %15 = call fastcc ptr @url_decode_internal(ptr noundef nonnull %3, i32 noundef %.0, ptr noundef null, ptr noundef %4, i32 noundef 0)
  call void @llvm.lifetime.end.p0(i64 24, ptr nonnull %4) #9
  ret ptr %15
}